; Function Attrs: mustprogress nounwind uwtable
define internal noundef zeroext i1 @_ZNSt17_Function_handlerIFvPKN12_GLOBAL__N_113StreamCheckerEPKNS0_13FnDescriptionERKN5clang4ento9CallEventERNS8_14CheckerContextEESt5_BindIFMS1_KFvS6_SB_SD_RKNS0_16StreamErrorStateEESt12_PlaceholderILi1EESL_ILi2EESL_ILi3EESL_ILi4EESG_EEE10_M_managerERSt9_Any_dataRKST_St18_Manager_operation(ptr noundef nonnull align 8 captures(none) dereferenceable(16) %0, ptr noundef nonnull readonly align 8 captures(none) dereferenceable(16) %1, i32 noundef %2) #2 align 2 {
  switch i32 %2, label %_ZNSt14_Function_base13_Base_managerISt5_BindIFMN12_GLOBAL__N_113StreamCheckerEKFvPKNS2_13FnDescriptionERKN5clang4ento9CallEventERNS8_14CheckerContextERKNS2_16StreamErrorStateEESt12_PlaceholderILi1EESJ_ILi2EESJ_ILi3EESJ_ILi4EESE_EEE10_M_managerERSt9_Any_dataRKSR_St18_Manager_operation.exit [
    i32 1, label %4
    i32 0, label %5
    i32 3, label %8
    i32 2, label %6
  ]

4:                                                ; preds = %3
  %.val = load ptr, ptr %1, align 8
  store ptr %.val, ptr %0, align 8
  br label %_ZNSt14_Function_base13_Base_managerISt5_BindIFMN12_GLOBAL__N_113StreamCheckerEKFvPKNS2_13FnDescriptionERKN5clang4ento9CallEventERNS8_14CheckerContextERKNS2_16StreamErrorStateEESt12_PlaceholderILi1EESJ_ILi2EESJ_ILi3EESJ_ILi4EESE_EEE10_M_managerERSt9_Any_dataRKSR_St18_Manager_operation.exit

5:                                                ; preds = %3
  store ptr null, ptr %0, align 8
  br label %_ZNSt14_Function_base13_Base_managerISt5_BindIFMN12_GLOBAL__N_113StreamCheckerEKFvPKNS2_13FnDescriptionERKN5clang4ento9CallEventERNS8_14CheckerContextERKNS2_16StreamErrorStateEESt12_PlaceholderILi1EESJ_ILi2EESJ_ILi3EESJ_ILi4EESE_EEE10_M_managerERSt9_Any_dataRKSR_St18_Manager_operation.exit

6:                                                ; preds = %3
  %.val5 = load ptr, ptr %1, align 8
  %7 = tail call noalias noundef nonnull dereferenceable(24) ptr @_Znwm(i64 noundef 24) #22
  tail call void @llvm.memcpy.p0.p0.i64(ptr noundef nonnull align 16 dereferenceable(24) %7, ptr noundef nonnull readonly align 8 dereferenceable(24) %.val5, i64 24, i1 false)
  store ptr %7, ptr %0, align 8
  br label %_ZNSt14_Function_base13_Base_managerISt5_BindIFMN12_GLOBAL__N_113StreamCheckerEKFvPKNS2_13FnDescriptionERKN5clang4ento9CallEventERNS8_14CheckerContextERKNS2_16StreamErrorStateEESt12_PlaceholderILi1EESJ_ILi2EESJ_ILi3EESJ_ILi4EESE_EEE10_M_managerERSt9_Any_dataRKSR_St18_Manager_operation.exit

8:                                                ; preds = %3
  %.val6.i = load ptr, ptr %0, align 8
  %9 = icmp eq ptr %.val6.i, null
  br i1 %9, label %_ZNSt14_Function_base13_Base_managerISt5_BindIFMN12_GLOBAL__N_113StreamCheckerEKFvPKNS2_13FnDescriptionERKN5clang4ento9CallEventERNS8_14CheckerContextERKNS2_16StreamErrorStateEESt12_PlaceholderILi1EESJ_ILi2EESJ_ILi3EESJ_ILi4EESE_EEE10_M_managerERSt9_Any_dataRKSR_St18_Manager_operation.exit, label %10

10:                                               ; preds = %8
  tail call void @_ZdlPvm(ptr noundef nonnull %.val6.i, i64 noundef 24) #23
  br label %_ZNSt14_Function_base13_Base_managerISt5_BindIFMN12_GLOBAL__N_113StreamCheckerEKFvPKNS2_13FnDescriptionERKN5clang4ento9CallEventERNS8_14CheckerContextERKNS2_16StreamErrorStateEESt12_PlaceholderILi1EESJ_ILi2EESJ_ILi3EESJ_ILi4EESE_EEE10_M_managerERSt9_Any_dataRKSR_St18_Manager_operation.exit

_ZNSt14_Function_base13_Base_managerISt5_BindIFMN12_GLOBAL__N_113StreamCheckerEKFvPKNS2_13FnDescriptionERKN5clang4ento9CallEventERNS8_14CheckerContextERKNS2_16StreamErrorStateEESt12_PlaceholderILi1EESJ_ILi2EESJ_ILi3EESJ_ILi4EESE_EEE10_M_managerERSt9_Any_dataRKSR_St18_Manager_operation.exit: ; preds = %3, %10, %8, %6, %5, %4
  ret i1 false
}